# SymbolsHelper-Confirmed: 1.0.3 amd64
libappimage.so.1.0 libappimage1.0 #MINVER#
* Build-Depends-Package: libappimage-dev
 Md5Calculate@Base 1.0.3
 Md5Finalise@Base 1.0.3
 Md5Initialise@Base 1.0.3
 Md5Update@Base 1.0.3
 _ZGRN15StringSanitizer12asciiDigits_E_@Base 1.0.3
 _ZGRN15StringSanitizer13asciiLetters_E_@Base 1.0.3
 _ZGRN15StringSanitizer14pathSafeChars_E_@Base 1.0.3
 _ZGVZN5boost6system15system_categoryEvE24system_category_instance@Base 1.0.3
 _ZGVZN5boost6system16generic_categoryEvE25generic_category_instance@Base 1.0.3
 _ZGVZN5boost6system6detail15to_std_categoryERKNS0_14error_categoryEE15system_instance@Base 1.0.3
 _ZGVZN5boost6system6detail15to_std_categoryERKNS0_14error_categoryEE16generic_instance@Base 1.0.3
 _ZGVZN5boost6system6detail15to_std_categoryERKNS0_14error_categoryEE4map_@Base 1.0.3
 _ZGVZN8appimage19desktop_integration10integrator10Integrator4Priv11deployIconsEvE11dirIconPathB5cxx11@Base 1.0.3
 _ZN15StringSanitizer12asciiDigits_E@Base 1.0.3
 _ZN15StringSanitizer13asciiLetters_E@Base 1.0.3
 _ZN15StringSanitizer14pathSafeChars_E@Base 1.0.3
 _ZN15StringSanitizer15sanitizeForPathB5cxx11Ev@Base 1.0.3
 _ZN15StringSanitizerC1ENSt7__cxx1112basic_stringIcSt11char_traitsIcESaIcEEE@Base 1.0.3
 _ZN15StringSanitizerC2ENSt7__cxx1112basic_stringIcSt11char_traitsIcESaIcEEE@Base 1.0.3
 _ZN5boost10filesystem12is_directoryERKNS0_4pathE@Base 1.0.3
 _ZN5boost10filesystem28recursive_directory_iteratorC1ERKNS0_4pathE@Base 1.0.3
 _ZN5boost10filesystem28recursive_directory_iteratorC2ERKNS0_4pathE@Base 1.0.3
 _ZN5boost10filesystemdvERKNS0_4pathES3_@Base 1.0.3
 (optional=templinst)_ZN5boost13intrusive_ptrINS_10filesystem6detail17recur_dir_itr_impEED1Ev@Base 1.0.3
 (optional=templinst)_ZN5boost13intrusive_ptrINS_10filesystem6detail17recur_dir_itr_impEED2Ev@Base 1.0.3
 (optional=templinst)_ZN5boost2io6detail10quoted_outIcSt11char_traitsIcEKNSt7__cxx1112basic_stringIcS4_SaIcEEEEERSt13basic_ostreamIT_T0_ESE_PT1_SB_SB_@Base 1.0.3
 (optional=templinst)_ZN5boost2io6detail10quoted_putIcSt11char_traitsIcEEEbRSt15basic_streambufIT_T0_EPKS6_mmS6_S6_@Base 1.0.3
 (optional=templinst)_ZN5boost2io6detail11buffer_fillIcSt11char_traitsIcEEEbRSt15basic_streambufIT_T0_ES6_m@Base 1.0.3
 (optional=templinst)_ZN5boost2io6detail13ostream_guardIcSt11char_traitsIcEED1Ev@Base 1.0.3
 (optional=templinst)_ZN5boost2io6detail13ostream_guardIcSt11char_traitsIcEED2Ev@Base 1.0.3
 _ZN5boost6system12system_errorD0Ev@Base 1.0.3
 _ZN5boost6system12system_errorD1Ev@Base 1.0.3
 _ZN5boost6system12system_errorD2Ev@Base 1.0.3
 _ZN5boost6system15error_conditionC1EiRKNS0_14error_categoryE@Base 1.0.3
 _ZN5boost6system15error_conditionC2EiRKNS0_14error_categoryE@Base 1.0.3
 _ZN5boost6system15system_categoryEv@Base 1.0.3
 _ZN5boost6system16generic_categoryEv@Base 1.0.3
 _ZN5boost6system6detail11failed_implEiRKNS0_14error_categoryE@Base 1.0.3
 _ZN5boost6system6detail12std_categoryD0Ev@Base 1.0.3
 _ZN5boost6system6detail12std_categoryD1Ev@Base 1.0.3
 _ZN5boost6system6detail12std_categoryD2Ev@Base 1.0.3
 _ZN5boost6system6detail15to_std_categoryERKNS0_14error_categoryE@Base 1.0.3
 _ZN5boost6system6detail30generic_error_category_messageB5cxx11Ei@Base 1.0.3
 (optional=templinst)_ZN5boost9algorithm12trim_left_ifINSt7__cxx1112basic_stringIcSt11char_traitsIcESaIcEEENS0_6detail14is_classifiedFEEEvRT_T0_@Base 1.0.3
 (optional=templinst)_ZN5boost9algorithm13trim_right_ifINSt7__cxx1112basic_stringIcSt11char_traitsIcESaIcEEENS0_6detail14is_classifiedFEEEvRT_T0_@Base 1.0.3
 (optional=templinst)_ZN5boost9algorithm4trimINSt7__cxx1112basic_stringIcSt11char_traitsIcESaIcEEEEEvRT_RKSt6locale@Base 1.0.3
 (optional=templinst)_ZN5boost9algorithm8to_lowerINSt7__cxx1112basic_stringIcSt11char_traitsIcESaIcEEEEEvRT_RKSt6locale@Base 1.0.3
 _ZN5boost9algorithm9erase_allINSt7__cxx1112basic_stringIcSt11char_traitsIcESaIcEEEA2_cEEvRT_RKT0_@Base 1.0.3
 _ZN8appimage19desktop_integration10integrator10Integrator4Priv11deployIconsEv@Base 1.0.3
 _ZN8appimage19desktop_integration10integrator10Integrator4Priv18deployDesktopEntryEv@Base 1.0.3
 _ZN8appimage19desktop_integration10integrator10Integrator4Priv22deployMimeTypePackagesEv@Base 1.0.3
 _ZN8appimage19desktop_integration10integrator10Integrator4Priv22setExecutionPermissionEv@Base 1.0.3
 _ZN8appimage19desktop_integration10integrator10Integrator4Priv26assertItShouldBeIntegratedEv@Base 1.0.3
 _ZN8appimage19desktop_integration10integrator10Integrator4PrivC1ERKNS_4core8AppImageERKN5boost10filesystem4pathE@Base 1.0.3
 _ZN8appimage19desktop_integration10integrator10Integrator4PrivC2ERKNS_4core8AppImageERKN5boost10filesystem4pathE@Base 1.0.3
 _ZN8appimage19desktop_integration10integrator10Integrator9integrateEv@Base 1.0.3
 _ZN8appimage19desktop_integration10integrator10IntegratorC1ERKNS_4core8AppImageERKN5boost10filesystem4pathE@Base 1.0.3
 _ZN8appimage19desktop_integration10integrator10IntegratorC2ERKNS_4core8AppImageERKN5boost10filesystem4pathE@Base 1.0.3
 _ZN8appimage19desktop_integration10integrator10IntegratorD0Ev@Base 1.0.3
 _ZN8appimage19desktop_integration10integrator10IntegratorD1Ev@Base 1.0.3
 _ZN8appimage19desktop_integration10integrator10IntegratorD2Ev@Base 1.0.3
 _ZN8appimage19desktop_integration10integrator18DesktopEntryEditor12setExecPathsERN8XdgUtils12DesktopEntry12DesktopEntryE@Base 1.0.3
 _ZN8appimage19desktop_integration10integrator18DesktopEntryEditor13setIdentifierERKNSt7__cxx1112basic_stringIcSt11char_traitsIcESaIcEEE@Base 1.0.3
 _ZN8appimage19desktop_integration10integrator18DesktopEntryEditor15setAppImagePathERKNSt7__cxx1112basic_stringIcSt11char_traitsIcESaIcEEE@Base 1.0.3
 _ZN8appimage19desktop_integration10integrator18DesktopEntryEditor15setVendorPrefixERKNSt7__cxx1112basic_stringIcSt11char_traitsIcESaIcEEE@Base 1.0.3
 _ZN8appimage19desktop_integration10integrator18DesktopEntryEditor18setAppImageVersionERKNSt7__cxx1112basic_stringIcSt11char_traitsIcESaIcEEE@Base 1.0.3
 _ZN8appimage19desktop_integration10integrator18DesktopEntryEditor19appendVersionToNameERN8XdgUtils12DesktopEntry12DesktopEntryE@Base 1.0.3
 _ZN8appimage19desktop_integration10integrator18DesktopEntryEditor4editERN8XdgUtils12DesktopEntry12DesktopEntryE@Base 1.0.3
 _ZN8appimage19desktop_integration10integrator18DesktopEntryEditor8setIconsERN8XdgUtils12DesktopEntry12DesktopEntryE@Base 1.0.3
 _ZN8appimage19desktop_integration10integrator18DesktopEntryEditorD1Ev@Base 1.0.3
 _ZN8appimage19desktop_integration10integrator18DesktopEntryEditorD2Ev@Base 1.0.3
 _ZN8appimage19desktop_integration10integrator21DesktopEntryEditErrorD0Ev@Base 1.0.3
 _ZN8appimage19desktop_integration10integrator21DesktopEntryEditErrorD1Ev@Base 1.0.3
 _ZN8appimage19desktop_integration10integrator21DesktopEntryEditErrorD2Ev@Base 1.0.3
 _ZN8appimage19desktop_integration11Thumbnailer11getIconPathESt6vectorINSt7__cxx1112basic_stringIcSt11char_traitsIcESaIcEEESaIS8_EERKS8_@Base 1.0.3
 _ZN8appimage19desktop_integration11Thumbnailer6createERKNS_4core8AppImageE@Base 1.0.3
 _ZN8appimage19desktop_integration11Thumbnailer6removeERKNSt7__cxx1112basic_stringIcSt11char_traitsIcESaIcEEE@Base 1.0.3
 _ZN8appimage19desktop_integration11ThumbnailerC1ERKNSt7__cxx1112basic_stringIcSt11char_traitsIcESaIcEEE@Base 1.0.3
 _ZN8appimage19desktop_integration11ThumbnailerC1Ev@Base 1.0.3
 _ZN8appimage19desktop_integration11ThumbnailerC2ERKNSt7__cxx1112basic_stringIcSt11char_traitsIcESaIcEEE@Base 1.0.3
 _ZN8appimage19desktop_integration11ThumbnailerC2Ev@Base 1.0.3
 _ZN8appimage19desktop_integration11ThumbnailerD0Ev@Base 1.0.3
 _ZN8appimage19desktop_integration11ThumbnailerD1Ev@Base 1.0.3
 _ZN8appimage19desktop_integration11ThumbnailerD2Ev@Base 1.0.3
 _ZN8appimage19desktop_integration18IntegrationManager7PrivateC1Ev@Base 1.0.3
 _ZN8appimage19desktop_integration18IntegrationManager7PrivateC2Ev@Base 1.0.3
 _ZN8appimage19desktop_integration18IntegrationManagerC1ERKNSt7__cxx1112basic_stringIcSt11char_traitsIcESaIcEEE@Base 1.0.3
 _ZN8appimage19desktop_integration18IntegrationManagerC1ERKS1_@Base 1.0.3
 _ZN8appimage19desktop_integration18IntegrationManagerC1Ev@Base 1.0.3
 _ZN8appimage19desktop_integration18IntegrationManagerC2ERKNSt7__cxx1112basic_stringIcSt11char_traitsIcESaIcEEE@Base 1.0.3
 _ZN8appimage19desktop_integration18IntegrationManagerC2ERKS1_@Base 1.0.3
 _ZN8appimage19desktop_integration18IntegrationManagerC2Ev@Base 1.0.3
 _ZN8appimage19desktop_integration18IntegrationManagerD0Ev@Base 1.0.3
 _ZN8appimage19desktop_integration18IntegrationManagerD1Ev@Base 1.0.3
 _ZN8appimage19desktop_integration18IntegrationManagerD2Ev@Base 1.0.3
 _ZN8appimage19desktop_integration18IntegrationManageraSERKS1_@Base 1.0.3
 _ZN8appimage19desktop_integration23DesktopIntegrationErrorC1ERKNSt7__cxx1112basic_stringIcSt11char_traitsIcESaIcEEE@Base 1.0.3
 _ZN8appimage19desktop_integration23DesktopIntegrationErrorC2ERKNSt7__cxx1112basic_stringIcSt11char_traitsIcESaIcEEE@Base 1.0.3
 _ZN8appimage19desktop_integration23DesktopIntegrationErrorD0Ev@Base 1.0.3
 _ZN8appimage19desktop_integration23DesktopIntegrationErrorD1Ev@Base 1.0.3
 _ZN8appimage19desktop_integration23DesktopIntegrationErrorD2Ev@Base 1.0.3
 _ZN8appimage4core13AppImageErrorD0Ev@Base 1.0.3
 _ZN8appimage4core13AppImageErrorD1Ev@Base 1.0.3
 _ZN8appimage4core13AppImageErrorD2Ev@Base 1.0.3
 _ZN8appimage4core15FileSystemErrorD0Ev@Base 1.0.3
 _ZN8appimage4core15FileSystemErrorD1Ev@Base 1.0.3
 _ZN8appimage4core15FileSystemErrorD2Ev@Base 1.0.3
 _ZN8appimage4core15PayloadIterator10linkTargetB5cxx11Ev@Base 1.0.3
 _ZN8appimage4core15PayloadIterator3endEv@Base 1.0.3
 _ZN8appimage4core15PayloadIterator4pathB5cxx11Ev@Base 1.0.3
 _ZN8appimage4core15PayloadIterator4readEv@Base 1.0.3
 _ZN8appimage4core15PayloadIterator4typeEv@Base 1.0.3
 _ZN8appimage4core15PayloadIterator5beginEv@Base 1.0.3
 _ZN8appimage4core15PayloadIterator7Private4readEv@Base 1.0.3
 _ZN8appimage4core15PayloadIterator7Private9extractToERKNSt7__cxx1112basic_stringIcSt11char_traitsIcESaIcEEE@Base 1.0.3
 _ZN8appimage4core15PayloadIterator7PrivateC1ERKNS0_8AppImageEb@Base 1.0.3
 _ZN8appimage4core15PayloadIterator7PrivateC2ERKNS0_8AppImageEb@Base 1.0.3
 _ZN8appimage4core15PayloadIterator7PrivateD1Ev@Base 1.0.3
 _ZN8appimage4core15PayloadIterator7PrivateD2Ev@Base 1.0.3
 _ZN8appimage4core15PayloadIterator9extractToERKNSt7__cxx1112basic_stringIcSt11char_traitsIcESaIcEEE@Base 1.0.3
 _ZN8appimage4core15PayloadIteratorC1EOS1_@Base 1.0.3
 _ZN8appimage4core15PayloadIteratorC1EPNS1_7PrivateE@Base 1.0.3
 _ZN8appimage4core15PayloadIteratorC1ERKNS0_8AppImageE@Base 1.0.3
 _ZN8appimage4core15PayloadIteratorC2EOS1_@Base 1.0.3
 _ZN8appimage4core15PayloadIteratorC2EPNS1_7PrivateE@Base 1.0.3
 _ZN8appimage4core15PayloadIteratorC2ERKNS0_8AppImageE@Base 1.0.3
 _ZN8appimage4core15PayloadIteratoraSEOS1_@Base 1.0.3
 _ZN8appimage4core15PayloadIteratordeB5cxx11Ev@Base 1.0.3
 _ZN8appimage4core15PayloadIteratorppEv@Base 1.0.3
 _ZN8appimage4core20PayloadIteratorErrorD0Ev@Base 1.0.3
 _ZN8appimage4core20PayloadIteratorErrorD1Ev@Base 1.0.3
 _ZN8appimage4core20PayloadIteratorErrorD2Ev@Base 1.0.3
 _ZN8appimage4core4impl14PayloadIStreamC1Ev@Base 1.0.3
 _ZN8appimage4core4impl14PayloadIStreamC2Ev@Base 1.0.3
 _ZN8appimage4core4impl14PayloadIStreamD0Ev@Base 1.0.3
 _ZN8appimage4core4impl14PayloadIStreamD1Ev@Base 1.0.3
 _ZN8appimage4core4impl14PayloadIStreamD2Ev@Base 1.0.3
 _ZN8appimage4core4impl14StreambufType19underflowEv@Base 1.0.3
 _ZN8appimage4core4impl14StreambufType1C1EOS2_@Base 1.0.3
 _ZN8appimage4core4impl14StreambufType1C1EP7archivem@Base 1.0.3
 _ZN8appimage4core4impl14StreambufType1C2EOS2_@Base 1.0.3
 _ZN8appimage4core4impl14StreambufType1C2EP7archivem@Base 1.0.3
 _ZN8appimage4core4impl14StreambufType1D0Ev@Base 1.0.3
 _ZN8appimage4core4impl14StreambufType1D1Ev@Base 1.0.3
 _ZN8appimage4core4impl14StreambufType1D2Ev@Base 1.0.3
 _ZN8appimage4core4impl14StreambufType1aSEOS2_@Base 1.0.3
 _ZN8appimage4core4impl14StreambufType29underflowEv@Base 1.0.3
 _ZN8appimage4core4impl14StreambufType2C1EOS2_@Base 1.0.3
 _ZN8appimage4core4impl14StreambufType2C1EP4sqfsP10sqfs_inodem@Base 1.0.3
 _ZN8appimage4core4impl14StreambufType2C2EOS2_@Base 1.0.3
 _ZN8appimage4core4impl14StreambufType2C2EP4sqfsP10sqfs_inodem@Base 1.0.3
 _ZN8appimage4core4impl14StreambufType2D0Ev@Base 1.0.3
 _ZN8appimage4core4impl14StreambufType2D1Ev@Base 1.0.3
 _ZN8appimage4core4impl14StreambufType2D2Ev@Base 1.0.3
 _ZN8appimage4core4impl14StreambufType2aSEOS2_@Base 1.0.3
 _ZN8appimage4core4impl14TraversalType113readEntryDataEv@Base 1.0.3
 _ZN8appimage4core4impl14TraversalType113readEntryLinkB5cxx11Ev@Base 1.0.3
 _ZN8appimage4core4impl14TraversalType113readEntryNameB5cxx11Ev@Base 1.0.3
 _ZN8appimage4core4impl14TraversalType113readEntryTypeEv@Base 1.0.3
 _ZN8appimage4core4impl14TraversalType114readNextHeaderEv@Base 1.0.3
 _ZN8appimage4core4impl14TraversalType14nextEv@Base 1.0.3
 _ZN8appimage4core4impl14TraversalType14readEv@Base 1.0.3
 _ZN8appimage4core4impl14TraversalType17extractERKNSt7__cxx1112basic_stringIcSt11char_traitsIcESaIcEEE@Base 1.0.3
 _ZN8appimage4core4impl14TraversalType1C1ERKNSt7__cxx1112basic_stringIcSt11char_traitsIcESaIcEEE@Base 1.0.3
 _ZN8appimage4core4impl14TraversalType1C2ERKNSt7__cxx1112basic_stringIcSt11char_traitsIcESaIcEEE@Base 1.0.3
 _ZN8appimage4core4impl14TraversalType1D1Ev@Base 1.0.3
 _ZN8appimage4core4impl14TraversalType1D2Ev@Base 1.0.3
 _ZN8appimage4core4impl14TraversalType24Priv13readEntryLinkB5cxx11Ev@Base 1.0.3
 _ZN8appimage4core4impl14TraversalType24Priv4nextEv@Base 1.0.3
 _ZN8appimage4core4impl14TraversalType24Priv4readEv@Base 1.0.3
 _ZN8appimage4core4impl14TraversalType24Priv7extractERKNSt7__cxx1112basic_stringIcSt11char_traitsIcESaIcEEE@Base 1.0.3
 _ZN8appimage4core4impl14TraversalType24PrivC1ERKNSt7__cxx1112basic_stringIcSt11char_traitsIcESaIcEEE@Base 1.0.3
 _ZN8appimage4core4impl14TraversalType24PrivC2ERKNSt7__cxx1112basic_stringIcSt11char_traitsIcESaIcEEE@Base 1.0.3
 _ZN8appimage4core4impl14TraversalType24PrivD0Ev@Base 1.0.3
 _ZN8appimage4core4impl14TraversalType24PrivD1Ev@Base 1.0.3
 _ZN8appimage4core4impl14TraversalType24PrivD2Ev@Base 1.0.3
 _ZN8appimage4core4impl14TraversalType24nextEv@Base 1.0.3
 _ZN8appimage4core4impl14TraversalType24readEv@Base 1.0.3
 _ZN8appimage4core4impl14TraversalType27extractERKNSt7__cxx1112basic_stringIcSt11char_traitsIcESaIcEEE@Base 1.0.3
 _ZN8appimage4core4impl14TraversalType2C1ENSt7__cxx1112basic_stringIcSt11char_traitsIcESaIcEEE@Base 1.0.3
 _ZN8appimage4core4impl14TraversalType2C2ENSt7__cxx1112basic_stringIcSt11char_traitsIcESaIcEEE@Base 1.0.3
 _ZN8appimage4core4impl14TraversalType2D1Ev@Base 1.0.3
 _ZN8appimage4core4impl14TraversalType2D2Ev@Base 1.0.3
 _ZN8appimage4core7IOErrorC1ERKNSt7__cxx1112basic_stringIcSt11char_traitsIcESaIcEEE@Base 1.0.3
 _ZN8appimage4core7IOErrorC2ERKNSt7__cxx1112basic_stringIcSt11char_traitsIcESaIcEEE@Base 1.0.3
 _ZN8appimage4core7IOErrorD0Ev@Base 1.0.3
 _ZN8appimage4core7IOErrorD1Ev@Base 1.0.3
 _ZN8appimage4core7IOErrorD2Ev@Base 1.0.3
 _ZN8appimage4core8AppImage7Private9getFormatERKNSt7__cxx1112basic_stringIcSt11char_traitsIcESaIcEEE@Base 1.0.3
 _ZN8appimage4core8AppImage7PrivateC1ERKNSt7__cxx1112basic_stringIcSt11char_traitsIcESaIcEEE@Base 1.0.3
 _ZN8appimage4core8AppImage7PrivateC2ERKNSt7__cxx1112basic_stringIcSt11char_traitsIcESaIcEEE@Base 1.0.3
 _ZN8appimage4core8AppImage9getFormatERKNSt7__cxx1112basic_stringIcSt11char_traitsIcESaIcEEE@Base 1.0.3
 _ZN8appimage4core8AppImageC1ERKNSt7__cxx1112basic_stringIcSt11char_traitsIcESaIcEEE@Base 1.0.3
 _ZN8appimage4core8AppImageC1ERKS1_@Base 1.0.3
 _ZN8appimage4core8AppImageC2ERKNSt7__cxx1112basic_stringIcSt11char_traitsIcESaIcEEE@Base 1.0.3
 _ZN8appimage4core8AppImageC2ERKS1_@Base 1.0.3
 _ZN8appimage4core8AppImageD0Ev@Base 1.0.3
 _ZN8appimage4core8AppImageD1Ev@Base 1.0.3
 _ZN8appimage4core8AppImageD2Ev@Base 1.0.3
 _ZN8appimage4core8AppImageaSERKS1_@Base 1.0.3
 _ZN8appimage5utils10IconHandle4PrivD0Ev@Base 1.0.3
 _ZN8appimage5utils10IconHandle4PrivD1Ev@Base 1.0.3
 _ZN8appimage5utils10IconHandle4PrivD2Ev@Base 1.0.3
 _ZN8appimage5utils10IconHandle4saveERKNSt7__cxx1112basic_stringIcSt11char_traitsIcESaIcEEES9_@Base 1.0.3
 _ZN8appimage5utils10IconHandle6formatB5cxx11Ev@Base 1.0.3
 _ZN8appimage5utils10IconHandle7getSizeEv@Base 1.0.3
 _ZN8appimage5utils10IconHandle7setSizeEi@Base 1.0.3
 _ZN8appimage5utils10IconHandleC1ERKNSt7__cxx1112basic_stringIcSt11char_traitsIcESaIcEEE@Base 1.0.3
 _ZN8appimage5utils10IconHandleC1ERSt6vectorIcSaIcEE@Base 1.0.3
 _ZN8appimage5utils10IconHandleC2ERKNSt7__cxx1112basic_stringIcSt11char_traitsIcESaIcEEE@Base 1.0.3
 _ZN8appimage5utils10IconHandleC2ERSt6vectorIcSaIcEE@Base 1.0.3
 _ZN8appimage5utils10IconHandleD0Ev@Base 1.0.3
 _ZN8appimage5utils10IconHandleD1Ev@Base 1.0.3
 _ZN8appimage5utils10IconHandleD2Ev@Base 1.0.3
 _ZN8appimage5utils10UrlEncoder6encodeERKNSt7__cxx1112basic_stringIcSt11char_traitsIcESaIcEEE@Base 1.0.3
 _ZN8appimage5utils15IconHandleErrorC1ERKNSt7__cxx1112basic_stringIcSt11char_traitsIcESaIcEEE@Base 1.0.3
 _ZN8appimage5utils15IconHandleErrorC2ERKNSt7__cxx1112basic_stringIcSt11char_traitsIcESaIcEEE@Base 1.0.3
 _ZN8appimage5utils15IconHandleErrorD0Ev@Base 1.0.3
 _ZN8appimage5utils15IconHandleErrorD1Ev@Base 1.0.3
 _ZN8appimage5utils15IconHandleErrorD2Ev@Base 1.0.3
 _ZN8appimage5utils17MagicBytesChecker14hasSignatureAtERSt14basic_ifstreamIcSt11char_traitsIcEERSt6vectorIcSaIcEEl@Base 1.0.3
 _ZN8appimage5utils17MagicBytesChecker15hasElfSignatureEv@Base 1.0.3
 _ZN8appimage5utils17MagicBytesChecker19hasIso9660SignatureEv@Base 1.0.3
 _ZN8appimage5utils17MagicBytesChecker25hasAppImageType1SignatureEv@Base 1.0.3
 _ZN8appimage5utils17MagicBytesChecker25hasAppImageType2SignatureEv@Base 1.0.3
 _ZN8appimage5utils17MagicBytesCheckerC1ERKNSt7__cxx1112basic_stringIcSt11char_traitsIcESaIcEEE@Base 1.0.3
 _ZN8appimage5utils17MagicBytesCheckerC2ERKNSt7__cxx1112basic_stringIcSt11char_traitsIcESaIcEEE@Base 1.0.3
 _ZN8appimage5utils17setLoggerCallbackERKSt8functionIFvRKNS0_8LogLevelERKNSt7__cxx1112basic_stringIcSt11char_traitsIcESaIcEEEEE@Base 1.0.3
 _ZN8appimage5utils18ResourcesExtractor4Priv10isMimeFileERKNSt7__cxx1112basic_stringIcSt11char_traitsIcESaIcEEE@Base 1.0.3
 _ZN8appimage5utils18ResourcesExtractor4Priv12readDataFileERSi@Base 1.0.3
 _ZN8appimage5utils18ResourcesExtractorC1ERKNS_4core8AppImageE@Base 1.0.3
 _ZN8appimage5utils18ResourcesExtractorC2ERKNS_4core8AppImageE@Base 1.0.3
 _ZN8appimage5utils19IconHandleCairoRsvg10tryLoadPngERKSt6vectorIcSaIcEE@Base 1.0.3
 _ZN8appimage5utils19IconHandleCairoRsvg10tryLoadSvgERKSt6vectorIcSaIcEE@Base 1.0.3
 _ZN8appimage5utils19IconHandleCairoRsvg14getNewIconDataERKNSt7__cxx1112basic_stringIcSt11char_traitsIcESaIcEEE@Base 1.0.3
 _ZN8appimage5utils19IconHandleCairoRsvg15getOriginalSizeEv@Base 1.0.3
 _ZN8appimage5utils19IconHandleCairoRsvg4saveERKN5boost10filesystem4pathERKNSt7__cxx1112basic_stringIcSt11char_traitsIcESaIcEEE@Base 1.0.3
 _ZN8appimage5utils19IconHandleCairoRsvg7png2pngEv@Base 1.0.3
 _ZN8appimage5utils19IconHandleCairoRsvg7setSizeEi@Base 1.0.3
 _ZN8appimage5utils19IconHandleCairoRsvg7svg2pngEv@Base 1.0.3
 _ZN8appimage5utils19IconHandleCairoRsvg8readFileERKNSt7__cxx1112basic_stringIcSt11char_traitsIcESaIcEEE@Base 1.0.3
 _ZN8appimage5utils19IconHandleCairoRsvgC1ERKNSt7__cxx1112basic_stringIcSt11char_traitsIcESaIcEEE@Base 1.0.3
 _ZN8appimage5utils19IconHandleCairoRsvgC1ERKSt6vectorIcSaIcEE@Base 1.0.3
 _ZN8appimage5utils19IconHandleCairoRsvgC2ERKNSt7__cxx1112basic_stringIcSt11char_traitsIcESaIcEEE@Base 1.0.3
 _ZN8appimage5utils19IconHandleCairoRsvgC2ERKSt6vectorIcSaIcEE@Base 1.0.3
 _ZN8appimage5utils19IconHandleCairoRsvgD0Ev@Base 1.0.3
 _ZN8appimage5utils19IconHandleCairoRsvgD1Ev@Base 1.0.3
 _ZN8appimage5utils19IconHandleCairoRsvgD2Ev@Base 1.0.3
 _ZN8appimage5utils19PayloadEntriesCache10buildCacheEv@Base 1.0.3
 _ZN8appimage5utils19PayloadEntriesCache12resolveLinksEv@Base 1.0.3
 _ZN8appimage5utils19PayloadEntriesCache14readAllEntriesEv@Base 1.0.3
 _ZN8appimage5utils19PayloadEntriesCacheC1ERKNS_4core8AppImageE@Base 1.0.3
 _ZN8appimage5utils19PayloadEntriesCacheC2ERKNS_4core8AppImageE@Base 1.0.3
 _ZN8appimage5utils19PayloadEntriesCacheD1Ev@Base 1.0.3
 _ZN8appimage5utils19PayloadEntriesCacheD2Ev@Base 1.0.3
 _ZN8appimage5utils6Logger11getInstanceEv@Base 1.0.3
 _ZN8appimage5utils6Logger11setCallbackERKSt8functionIFvRKNS0_8LogLevelERKNSt7__cxx1112basic_stringIcSt11char_traitsIcESaIcEEEEE@Base 1.0.3
 _ZN8appimage5utils6Logger3logERKNS0_8LogLevelERKNSt7__cxx1112basic_stringIcSt11char_traitsIcESaIcEEE@Base 1.0.3
 _ZN8appimage5utils6Logger4Priv1iE@Base 1.0.3
 _ZN8appimage5utils6Logger4infoERKNSt7__cxx1112basic_stringIcSt11char_traitsIcESaIcEEE@Base 1.0.3
 _ZN8appimage5utils6Logger5debugERKNSt7__cxx1112basic_stringIcSt11char_traitsIcESaIcEEE@Base 1.0.3
 _ZN8appimage5utils6Logger5errorERKNSt7__cxx1112basic_stringIcSt11char_traitsIcESaIcEEE@Base 1.0.3
 _ZN8appimage5utils6Logger7warningERKNSt7__cxx1112basic_stringIcSt11char_traitsIcESaIcEEE@Base 1.0.3
 _ZN8appimage5utils6LoggerC1Ev@Base 1.0.3
 _ZN8appimage5utils6LoggerC2Ev@Base 1.0.3
 _ZN8appimage5utils7ElfFile10read_elf32EP8_IO_FILE@Base 1.0.3
 _ZN8appimage5utils7ElfFile10read_elf64EP8_IO_FILE@Base 1.0.3
 _ZN8appimage5utils7ElfFile13file16_to_cpuEt@Base 1.0.3
 _ZN8appimage5utils7ElfFile13file32_to_cpuEj@Base 1.0.3
 _ZN8appimage5utils7ElfFile13file64_to_cpuEm@Base 1.0.3
 _ZN8appimage5utils7ElfFile7getSizeEv@Base 1.0.3
 _ZN8appimage5utils7ElfFileC1ERKNSt7__cxx1112basic_stringIcSt11char_traitsIcESaIcEEE@Base 1.0.3
 _ZN8appimage5utils7ElfFileC2ERKNSt7__cxx1112basic_stringIcSt11char_traitsIcESaIcEEE@Base 1.0.3
 _ZN8appimage5utils7hashlib3md5ERKNSt7__cxx1112basic_stringIcSt11char_traitsIcESaIcEEE@Base 1.0.3
 _ZN8appimage5utils7hashlib3md5ERSi@Base 1.0.3
 _ZN8appimage5utils7hashlib5toHexB5cxx11ESt6vectorIhSaIhEE@Base 1.0.3
 _ZN8appimage5utils8hashPathB5cxx11ERKN5boost10filesystem4pathE@Base 1.0.3
 _ZN8appimage5utils9pathToURIERKNSt7__cxx1112basic_stringIcSt11char_traitsIcESaIcEEE@Base 1.0.3
 _ZNK5boost10filesystem28recursive_directory_iterator5equalERKS1_@Base 1.0.3
 _ZNK5boost6system12system_error4whatEv@Base 1.0.3
 _ZNK5boost6system14error_category10equivalentERKNS0_10error_codeEi@Base 1.0.3
 _ZNK5boost6system14error_category10equivalentEiRKNS0_15error_conditionE@Base 1.0.3
 _ZNK5boost6system14error_category23default_error_conditionEi@Base 1.0.3
 _ZNK5boost6system14error_category6failedEi@Base 1.0.3
 _ZNK5boost6system14error_category7messageEiPcm@Base 1.0.3
 _ZNK5boost6system14error_categoryltERKS1_@Base 1.0.3
 _ZNK5boost6system6detail12std_category10equivalentERKSt10error_codei@Base 1.0.3
 _ZNK5boost6system6detail12std_category10equivalentEiRKSt15error_condition@Base 1.0.3
 _ZNK5boost6system6detail12std_category23default_error_conditionEi@Base 1.0.3
 _ZNK5boost6system6detail12std_category4nameEv@Base 1.0.3
 _ZNK5boost6system6detail12std_category7messageB5cxx11Ei@Base 1.0.3
 _ZNK5boost6system6detail21system_error_category23default_error_conditionEi@Base 1.0.3
 _ZNK5boost6system6detail21system_error_category4nameEv@Base 1.0.3
 _ZNK5boost6system6detail21system_error_category7messageB5cxx11Ei@Base 1.0.3
 _ZNK5boost6system6detail21system_error_category7messageEiPcm@Base 1.0.3
 _ZNK5boost6system6detail22generic_error_category4nameEv@Base 1.0.3
 _ZNK5boost6system6detail22generic_error_category7messageB5cxx11Ei@Base 1.0.3
 _ZNK5boost6system6detail22generic_error_category7messageEiPcm@Base 1.0.3
 (optional=templinst)_ZNK5boost9algorithm6detail13first_finderFIPKcNS0_8is_equalEEclIN9__gnu_cxx17__normal_iteratorIPcNSt7__cxx1112basic_stringIcSt11char_traitsIcESaIcEEEEEEENS_14iterator_rangeIT_EESJ_SJ_@Base 1.0.3
 _ZNK8appimage19desktop_integration10integrator10Integrator4Priv18generateDeployPathEN5boost10filesystem4pathE@Base 1.0.3
 _ZNK8appimage19desktop_integration10integrator10Integrator4Priv20buildDesktopFilePathB5cxx11Ev@Base 1.0.3
 _ZNK8appimage19desktop_integration10integrator10Integrator4Priv21deployApplicationIconERKNSt7__cxx1112basic_stringIcSt11char_traitsIcESaIcEEERSt6vectorIcS8_E@Base 1.0.3
 _ZNK8appimage19desktop_integration11Thumbnailer14getAppIconNameB5cxx11ERKNS_5utils18ResourcesExtractorE@Base 1.0.3
 _ZNK8appimage19desktop_integration11Thumbnailer21getLargeThumbnailPathERKNSt7__cxx1112basic_stringIcSt11char_traitsIcESaIcEEE@Base 1.0.3
 _ZNK8appimage19desktop_integration11Thumbnailer22getNormalThumbnailPathERKNSt7__cxx1112basic_stringIcSt11char_traitsIcESaIcEEE@Base 1.0.3
 _ZNK8appimage19desktop_integration11Thumbnailer26generateLargeSizeThumbnailERKNSt7__cxx1112basic_stringIcSt11char_traitsIcESaIcEEERSt6vectorIcS6_E@Base 1.0.3
 _ZNK8appimage19desktop_integration11Thumbnailer27generateNormalSizeThumbnailERKNSt7__cxx1112basic_stringIcSt11char_traitsIcESaIcEEERSt6vectorIcS6_E@Base 1.0.3
 _ZNK8appimage19desktop_integration18IntegrationManager16registerAppImageERKNS_4core8AppImageE@Base 1.0.3
 _ZNK8appimage19desktop_integration18IntegrationManager16removeThumbnailsERKNSt7__cxx1112basic_stringIcSt11char_traitsIcESaIcEEE@Base 1.0.3
 _ZNK8appimage19desktop_integration18IntegrationManager18generateThumbnailsERKNS_4core8AppImageE@Base 1.0.3
 _ZNK8appimage19desktop_integration18IntegrationManager18unregisterAppImageERKNSt7__cxx1112basic_stringIcSt11char_traitsIcESaIcEEE@Base 1.0.3
 _ZNK8appimage19desktop_integration18IntegrationManager21isARegisteredAppImageERKNSt7__cxx1112basic_stringIcSt11char_traitsIcESaIcEEE@Base 1.0.3
 _ZNK8appimage19desktop_integration18IntegrationManager25shallAppImageBeRegisteredERKNS_4core8AppImageE@Base 1.0.3
 _ZNK8appimage4core15PayloadIteratoreqERKS1_@Base 1.0.3
 _ZNK8appimage4core15PayloadIteratorneERKS1_@Base 1.0.3
 _ZNK8appimage4core4impl14TraversalType111isCompletedEv@Base 1.0.3
 _ZNK8appimage4core4impl14TraversalType112getEntryPathB5cxx11Ev@Base 1.0.3
 _ZNK8appimage4core4impl14TraversalType112getEntryTypeEv@Base 1.0.3
 _ZNK8appimage4core4impl14TraversalType118getEntryLinkTargetB5cxx11Ev@Base 1.0.3
 _ZNK8appimage4core4impl14TraversalType211isCompletedEv@Base 1.0.3
 _ZNK8appimage4core4impl14TraversalType212getEntryPathB5cxx11Ev@Base 1.0.3
 _ZNK8appimage4core4impl14TraversalType212getEntryTypeEv@Base 1.0.3
 _ZNK8appimage4core4impl14TraversalType218getEntryLinkTargetB5cxx11Ev@Base 1.0.3
 _ZNK8appimage4core8AppImage16getPayloadOffsetEv@Base 1.0.3
 _ZNK8appimage4core8AppImage5filesEv@Base 1.0.3
 _ZNK8appimage4core8AppImage7getPathB5cxx11Ev@Base 1.0.3
 _ZNK8appimage4core8AppImage9getFormatEv@Base 1.0.3
 _ZNK8appimage4core8AppImageeqERKS1_@Base 1.0.3
 _ZNK8appimage4core8AppImageneERKS1_@Base 1.0.3
 _ZNK8appimage4core9TraversaleqERKS1_@Base 1.0.3
 _ZNK8appimage4core9TraversalneERKS1_@Base 1.0.3
 _ZNK8appimage5utils18ResourcesExtractor11extractTextERKNSt7__cxx1112basic_stringIcSt11char_traitsIcESaIcEEE@Base 1.0.3
 _ZNK8appimage5utils18ResourcesExtractor16getIconFilePathsERKNSt7__cxx1112basic_stringIcSt11char_traitsIcESaIcEEE@Base 1.0.3
 _ZNK8appimage5utils18ResourcesExtractor19getDesktopEntryPathB5cxx11Ev@Base 1.0.3
 _ZNK8appimage5utils18ResourcesExtractor24getMimeTypePackagesPathsB5cxx11Ev@Base 1.0.3
 _ZNK8appimage5utils18ResourcesExtractor7extractERKNSt7__cxx1112basic_stringIcSt11char_traitsIcESaIcEEE@Base 1.0.3
 _ZNK8appimage5utils18ResourcesExtractor7extractERKSt6vectorINSt7__cxx1112basic_stringIcSt11char_traitsIcESaIcEEESaIS8_EE@Base 1.0.3
 _ZNK8appimage5utils18ResourcesExtractor9extractToERKSt3mapINSt7__cxx1112basic_stringIcSt11char_traitsIcESaIcEEES8_St4lessIS8_ESaISt4pairIKS8_S8_EEE@Base 1.0.3
 _ZNK8appimage5utils19IconHandleCairoRsvg7getSizeEv@Base 1.0.3
 _ZNK8appimage5utils19IconHandleCairoRsvg9getFormatB5cxx11Ev@Base 1.0.3
 _ZNK8appimage5utils19PayloadEntriesCache12getEntryTypeERKNSt7__cxx1112basic_stringIcSt11char_traitsIcESaIcEEE@Base 1.0.3
 _ZNK8appimage5utils19PayloadEntriesCache15getEntriesPathsB5cxx11Ev@Base 1.0.3
 _ZNK8appimage5utils19PayloadEntriesCache18getEntryLinkTargetERKNSt7__cxx1112basic_stringIcSt11char_traitsIcESaIcEEE@Base 1.0.3
 (optional=templinst)_ZNKSt19istreambuf_iteratorIcSt11char_traitsIcEE6_M_getEv@Base 1.0.3
 (optional=templinst)_ZNKSt6vectorIcSaIcEE12_M_check_lenEmPKc@Base 1.0.3
 (optional=templinst)_ZNSt10unique_ptrIN5boost6system6detail12std_categoryESt14default_deleteIS3_EED1Ev@Base 1.0.3
 (optional=templinst)_ZNSt10unique_ptrIN5boost6system6detail12std_categoryESt14default_deleteIS3_EED2Ev@Base 1.0.3
 (optional=templinst)_ZNSt10unique_ptrIN8appimage4core4impl14StreambufType1ESt14default_deleteIS3_EED1Ev@Base 1.0.3
 (optional=templinst)_ZNSt10unique_ptrIN8appimage4core4impl14StreambufType1ESt14default_deleteIS3_EED2Ev@Base 1.0.3
 (optional=templinst)_ZNSt10unique_ptrIN8appimage4core4impl14StreambufType2ESt14default_deleteIS3_EED1Ev@Base 1.0.3
 (optional=templinst)_ZNSt10unique_ptrIN8appimage4core4impl14StreambufType2ESt14default_deleteIS3_EED2Ev@Base 1.0.3
 (optional=templinst)_ZNSt10unique_ptrIN8appimage4core4impl14TraversalType24PrivESt14default_deleteIS4_EED1Ev@Base 1.0.3
 (optional=templinst)_ZNSt10unique_ptrIN8appimage4core4impl14TraversalType24PrivESt14default_deleteIS4_EED2Ev@Base 1.0.3
 (optional=templinst)_ZNSt10unique_ptrIN8appimage5utils6LoggerESt14default_deleteIS2_EED1Ev@Base 1.0.3
 (optional=templinst)_ZNSt10unique_ptrIN8appimage5utils6LoggerESt14default_deleteIS2_EED2Ev@Base 1.0.3
 (optional=templinst)_ZNSt11_Deque_baseIcSaIcEED1Ev@Base 1.0.3
 (optional=templinst)_ZNSt11_Deque_baseIcSaIcEED2Ev@Base 1.0.3
 (optional=templinst)_ZNSt12_Vector_baseINSt7__cxx1112basic_stringIcSt11char_traitsIcESaIcEEESaIS5_EED1Ev@Base 1.0.3
 (optional=templinst)_ZNSt12_Vector_baseINSt7__cxx1112basic_stringIcSt11char_traitsIcESaIcEEESaIS5_EED2Ev@Base 1.0.3
 (optional=templinst)_ZNSt12_Vector_baseIcSaIcEED1Ev@Base 1.0.3
 (optional=templinst)_ZNSt12_Vector_baseIcSaIcEED2Ev@Base 1.0.3
 (optional=templinst)_ZNSt12_Vector_baseIhSaIhEED1Ev@Base 1.0.3
 (optional=templinst)_ZNSt12_Vector_baseIhSaIhEED2Ev@Base 1.0.3
 _ZNSt14_Function_baseD1Ev@Base 1.0.3
 _ZNSt14_Function_baseD2Ev@Base 1.0.3
 (optional=templinst)_ZNSt14__shared_countILN9__gnu_cxx12_Lock_policyE2EEC1IPN8appimage19desktop_integration18IntegrationManager7PrivateEEET_@Base 1.0.3
 (optional=templinst)_ZNSt14__shared_countILN9__gnu_cxx12_Lock_policyE2EEC1IPN8appimage4core15PayloadIterator7PrivateEEET_@Base 1.0.3
 (optional=templinst)_ZNSt14__shared_countILN9__gnu_cxx12_Lock_policyE2EEC2IPN8appimage19desktop_integration18IntegrationManager7PrivateEEET_@Base 1.0.3
 (optional=templinst)_ZNSt14__shared_countILN9__gnu_cxx12_Lock_policyE2EEC2IPN8appimage4core15PayloadIterator7PrivateEEET_@Base 1.0.3
 (optional=templinst)_ZNSt14__shared_countILN9__gnu_cxx12_Lock_policyE2EED1Ev@Base 1.0.3
 (optional=templinst)_ZNSt14__shared_countILN9__gnu_cxx12_Lock_policyE2EED2Ev@Base 1.0.3
 (optional=templinst)_ZNSt15_Deque_iteratorIcRcPcEC1ERKS2_@Base 1.0.3
 (optional=templinst)_ZNSt15_Deque_iteratorIcRcPcEC2ERKS2_@Base 1.0.3
 (optional=templinst)_ZNSt15_Sp_counted_ptrIPN8appimage19desktop_integration18IntegrationManager7PrivateELN9__gnu_cxx12_Lock_policyE2EE10_M_destroyEv@Base 1.0.3
 (optional=templinst)_ZNSt15_Sp_counted_ptrIPN8appimage19desktop_integration18IntegrationManager7PrivateELN9__gnu_cxx12_Lock_policyE2EE10_M_disposeEv@Base 1.0.3
 (optional=templinst)_ZNSt15_Sp_counted_ptrIPN8appimage19desktop_integration18IntegrationManager7PrivateELN9__gnu_cxx12_Lock_policyE2EE14_M_get_deleterERKSt9type_info@Base 1.0.3
 (optional=templinst)_ZNSt15_Sp_counted_ptrIPN8appimage19desktop_integration18IntegrationManager7PrivateELN9__gnu_cxx12_Lock_policyE2EED0Ev@Base 1.0.3
 (optional=templinst)_ZNSt15_Sp_counted_ptrIPN8appimage19desktop_integration18IntegrationManager7PrivateELN9__gnu_cxx12_Lock_policyE2EED1Ev@Base 1.0.3
 (optional=templinst)_ZNSt15_Sp_counted_ptrIPN8appimage19desktop_integration18IntegrationManager7PrivateELN9__gnu_cxx12_Lock_policyE2EED2Ev@Base 1.0.3
 (optional=templinst)_ZNSt15_Sp_counted_ptrIPN8appimage4core15PayloadIterator7PrivateELN9__gnu_cxx12_Lock_policyE2EE10_M_destroyEv@Base 1.0.3
 (optional=templinst)_ZNSt15_Sp_counted_ptrIPN8appimage4core15PayloadIterator7PrivateELN9__gnu_cxx12_Lock_policyE2EE10_M_disposeEv@Base 1.0.3
 (optional=templinst)_ZNSt15_Sp_counted_ptrIPN8appimage4core15PayloadIterator7PrivateELN9__gnu_cxx12_Lock_policyE2EE14_M_get_deleterERKSt9type_info@Base 1.0.3
 (optional=templinst)_ZNSt15_Sp_counted_ptrIPN8appimage4core15PayloadIterator7PrivateELN9__gnu_cxx12_Lock_policyE2EED0Ev@Base 1.0.3
 (optional=templinst)_ZNSt15_Sp_counted_ptrIPN8appimage4core15PayloadIterator7PrivateELN9__gnu_cxx12_Lock_policyE2EED1Ev@Base 1.0.3
 (optional=templinst)_ZNSt15_Sp_counted_ptrIPN8appimage4core15PayloadIterator7PrivateELN9__gnu_cxx12_Lock_policyE2EED2Ev@Base 1.0.3
 (optional=templinst)_ZNSt15_Sp_counted_ptrIPN8appimage4core4impl14TraversalType1ELN9__gnu_cxx12_Lock_policyE2EE10_M_destroyEv@Base 1.0.3
 (optional=templinst)_ZNSt15_Sp_counted_ptrIPN8appimage4core4impl14TraversalType1ELN9__gnu_cxx12_Lock_policyE2EE10_M_disposeEv@Base 1.0.3
 (optional=templinst)_ZNSt15_Sp_counted_ptrIPN8appimage4core4impl14TraversalType1ELN9__gnu_cxx12_Lock_policyE2EE14_M_get_deleterERKSt9type_info@Base 1.0.3
 (optional=templinst)_ZNSt15_Sp_counted_ptrIPN8appimage4core4impl14TraversalType1ELN9__gnu_cxx12_Lock_policyE2EED0Ev@Base 1.0.3
 (optional=templinst)_ZNSt15_Sp_counted_ptrIPN8appimage4core4impl14TraversalType1ELN9__gnu_cxx12_Lock_policyE2EED1Ev@Base 1.0.3
 (optional=templinst)_ZNSt15_Sp_counted_ptrIPN8appimage4core4impl14TraversalType1ELN9__gnu_cxx12_Lock_policyE2EED2Ev@Base 1.0.3
 (optional=templinst)_ZNSt15_Sp_counted_ptrIPN8appimage4core4impl14TraversalType2ELN9__gnu_cxx12_Lock_policyE2EE10_M_destroyEv@Base 1.0.3
 (optional=templinst)_ZNSt15_Sp_counted_ptrIPN8appimage4core4impl14TraversalType2ELN9__gnu_cxx12_Lock_policyE2EE10_M_disposeEv@Base 1.0.3
 (optional=templinst)_ZNSt15_Sp_counted_ptrIPN8appimage4core4impl14TraversalType2ELN9__gnu_cxx12_Lock_policyE2EE14_M_get_deleterERKSt9type_info@Base 1.0.3
 (optional=templinst)_ZNSt15_Sp_counted_ptrIPN8appimage4core4impl14TraversalType2ELN9__gnu_cxx12_Lock_policyE2EED0Ev@Base 1.0.3
 (optional=templinst)_ZNSt15_Sp_counted_ptrIPN8appimage4core4impl14TraversalType2ELN9__gnu_cxx12_Lock_policyE2EED1Ev@Base 1.0.3
 (optional=templinst)_ZNSt15_Sp_counted_ptrIPN8appimage4core4impl14TraversalType2ELN9__gnu_cxx12_Lock_policyE2EED2Ev@Base 1.0.3
 (optional=templinst)_ZNSt15_Sp_counted_ptrIPN8appimage4core8AppImage7PrivateELN9__gnu_cxx12_Lock_policyE2EE10_M_destroyEv@Base 1.0.3
 (optional=templinst)_ZNSt15_Sp_counted_ptrIPN8appimage4core8AppImage7PrivateELN9__gnu_cxx12_Lock_policyE2EE10_M_disposeEv@Base 1.0.3
 (optional=templinst)_ZNSt15_Sp_counted_ptrIPN8appimage4core8AppImage7PrivateELN9__gnu_cxx12_Lock_policyE2EE14_M_get_deleterERKSt9type_info@Base 1.0.3
 (optional=templinst)_ZNSt15_Sp_counted_ptrIPN8appimage4core8AppImage7PrivateELN9__gnu_cxx12_Lock_policyE2EED0Ev@Base 1.0.3
 (optional=templinst)_ZNSt15_Sp_counted_ptrIPN8appimage4core8AppImage7PrivateELN9__gnu_cxx12_Lock_policyE2EED1Ev@Base 1.0.3
 (optional=templinst)_ZNSt15_Sp_counted_ptrIPN8appimage4core8AppImage7PrivateELN9__gnu_cxx12_Lock_policyE2EED2Ev@Base 1.0.3
 (optional=templinst)_ZNSt15_Sp_counted_ptrIPN8appimage5utils18ResourcesExtractor4PrivELN9__gnu_cxx12_Lock_policyE2EE10_M_destroyEv@Base 1.0.3
 (optional=templinst)_ZNSt15_Sp_counted_ptrIPN8appimage5utils18ResourcesExtractor4PrivELN9__gnu_cxx12_Lock_policyE2EE10_M_disposeEv@Base 1.0.3
 (optional=templinst)_ZNSt15_Sp_counted_ptrIPN8appimage5utils18ResourcesExtractor4PrivELN9__gnu_cxx12_Lock_policyE2EE14_M_get_deleterERKSt9type_info@Base 1.0.3
 (optional=templinst)_ZNSt15_Sp_counted_ptrIPN8appimage5utils18ResourcesExtractor4PrivELN9__gnu_cxx12_Lock_policyE2EED0Ev@Base 1.0.3
 (optional=templinst)_ZNSt15_Sp_counted_ptrIPN8appimage5utils18ResourcesExtractor4PrivELN9__gnu_cxx12_Lock_policyE2EED1Ev@Base 1.0.3
 (optional=templinst)_ZNSt15_Sp_counted_ptrIPN8appimage5utils18ResourcesExtractor4PrivELN9__gnu_cxx12_Lock_policyE2EED2Ev@Base 1.0.3
 (optional=templinst)_ZNSt16_Sp_counted_baseILN9__gnu_cxx12_Lock_policyE2EE10_M_releaseEv@Base 1.0.3
 (optional=templinst)_ZNSt17_Function_handlerIFvRKN8appimage5utils8LogLevelERKNSt7__cxx1112basic_stringIcSt11char_traitsIcESaIcEEEEZNS1_6Logger4PrivC4EvEUlS2_SC_E_E10_M_managerERSt9_Any_dataRKSI_St18_Manager_operation@Base 1.0.3
 (optional=templinst)_ZNSt17_Function_handlerIFvRKN8appimage5utils8LogLevelERKNSt7__cxx1112basic_stringIcSt11char_traitsIcESaIcEEEEZNS1_6Logger4PrivC4EvEUlS2_SC_E_E9_M_invokeERKSt9_Any_dataS4_SC_@Base 1.0.3
 (optional=templinst)_ZNSt27__uninitialized_default_n_1ILb1EE18__uninit_default_nIPcmEET_S3_T0_@Base 1.0.3
 (optional=templinst)_ZNSt27__uninitialized_default_n_1ILb1EE18__uninit_default_nIPhmEET_S3_T0_@Base 1.0.3
 (optional=templinst)_ZNSt3mapINSt7__cxx1112basic_stringIcSt11char_traitsIcESaIcEEES5_St4lessIS5_ESaISt4pairIKS5_S5_EEEixERS9_@Base 1.0.3
 (optional=templinst)_ZNSt3mapINSt7__cxx1112basic_stringIcSt11char_traitsIcESaIcEEESt6vectorIcS4_ESt4lessIS5_ESaISt4pairIKS5_S7_EEEixERSB_@Base 1.0.3
 (optional=templinst)_ZNSt3mapIPKN5boost6system14error_categoryESt10unique_ptrINS1_6detail12std_categoryESt14default_deleteIS7_EENS6_12cat_ptr_lessESaISt4pairIKS4_SA_EEED1Ev@Base 1.0.3
 (optional=templinst)_ZNSt3mapIPKN5boost6system14error_categoryESt10unique_ptrINS1_6detail12std_categoryESt14default_deleteIS7_EENS6_12cat_ptr_lessESaISt4pairIKS4_SA_EEED2Ev@Base 1.0.3
 (optional=templinst)_ZNSt5dequeIcSaIcEE13_M_insert_auxIPKcEEvSt15_Deque_iteratorIcRcPcET_S9_m@Base 1.0.3
 (optional=templinst)_ZNSt5dequeIcSaIcEE17_M_reallocate_mapEmb@Base 1.0.3
 (optional=templinst)_ZNSt5dequeIcSaIcEE22_M_reserve_map_at_backEm@Base 1.0.3
 (optional=templinst)_ZNSt5dequeIcSaIcEE23_M_new_elements_at_backEm@Base 1.0.3
 (optional=templinst)_ZNSt5dequeIcSaIcEE24_M_new_elements_at_frontEm@Base 1.0.3
 (optional=templinst)_ZNSt5dequeIcSaIcEE27_M_reserve_elements_at_backEm@Base 1.0.3
 (optional=templinst)_ZNSt5dequeIcSaIcEE28_M_reserve_elements_at_frontEm@Base 1.0.3
 (optional=templinst)_ZNSt5dequeIcSaIcEE9pop_frontEv@Base 1.0.3
 (optional=templinst)_ZNSt5dequeIcSaIcEED1Ev@Base 1.0.3
 (optional=templinst)_ZNSt5dequeIcSaIcEED2Ev@Base 1.0.3
 (optional=templinst)_ZNSt6vectorINSt7__cxx1112basic_stringIcSt11char_traitsIcESaIcEEESaIS5_EE12emplace_backIJRKS5_EEEvDpOT_@Base 1.0.3
 (optional=templinst)_ZNSt6vectorINSt7__cxx1112basic_stringIcSt11char_traitsIcESaIcEEESaIS5_EE17_M_realloc_insertIJRKS5_EEEvN9__gnu_cxx17__normal_iteratorIPS5_S7_EEDpOT_@Base 1.0.3
 (optional=templinst)_ZNSt6vectorINSt7__cxx1112basic_stringIcSt11char_traitsIcESaIcEEESaIS5_EE17_M_realloc_insertIJS5_EEEvN9__gnu_cxx17__normal_iteratorIPS5_S7_EEDpOT_@Base 1.0.3
 (optional=templinst)_ZNSt6vectorINSt7__cxx1112basic_stringIcSt11char_traitsIcESaIcEEESaIS5_EEC1ERKS7_@Base 1.0.3
 (optional=templinst)_ZNSt6vectorINSt7__cxx1112basic_stringIcSt11char_traitsIcESaIcEEESaIS5_EEC2ERKS7_@Base 1.0.3
 (optional=templinst)_ZNSt6vectorINSt7__cxx1112basic_stringIcSt11char_traitsIcESaIcEEESaIS5_EED1Ev@Base 1.0.3
 (optional=templinst)_ZNSt6vectorINSt7__cxx1112basic_stringIcSt11char_traitsIcESaIcEEESaIS5_EED2Ev@Base 1.0.3
 (optional=templinst)_ZNSt6vectorIcSaIcEE17_M_default_appendEm@Base 1.0.3
 (optional=templinst)_ZNSt6vectorIcSaIcEE17_M_realloc_insertIJcEEEvN9__gnu_cxx17__normal_iteratorIPcS1_EEDpOT_@Base 1.0.3
 (optional=templinst)_ZNSt6vectorIcSaIcEE6resizeEm@Base 1.0.3
 (optional=templinst)_ZNSt6vectorIcSaIcEEC1ERKS1_@Base 1.0.3
 (optional=templinst)_ZNSt6vectorIcSaIcEEC1ESt16initializer_listIcERKS0_@Base 1.0.3
 (optional=templinst)_ZNSt6vectorIcSaIcEEC2ERKS1_@Base 1.0.3
 (optional=templinst)_ZNSt6vectorIcSaIcEEC2ESt16initializer_listIcERKS0_@Base 1.0.3
 (optional=templinst)_ZNSt6vectorIhSaIhEE17_M_default_appendEm@Base 1.0.3
 _ZNSt7__cxx119to_stringEi@Base 1.0.3
 (optional=templinst)_ZNSt8_Rb_treeINSt7__cxx1112basic_stringIcSt11char_traitsIcESaIcEEESt4pairIKS5_N8appimage4core16PayloadEntryTypeEESt10_Select1stISB_ESt4lessIS5_ESaISB_EE24_M_get_insert_unique_posERS7_@Base 1.0.3
 (optional=templinst)_ZNSt8_Rb_treeINSt7__cxx1112basic_stringIcSt11char_traitsIcESaIcEEESt4pairIKS5_N8appimage4core16PayloadEntryTypeEESt10_Select1stISB_ESt4lessIS5_ESaISB_EE29_M_get_insert_hint_unique_posESt23_Rb_tree_const_iteratorISB_ERS7_@Base 1.0.3
 (optional=templinst)_ZNSt8_Rb_treeINSt7__cxx1112basic_stringIcSt11char_traitsIcESaIcEEESt4pairIKS5_S5_ESt10_Select1stIS8_ESt4lessIS5_ESaIS8_EE11lower_boundERS7_@Base 1.0.3
 (optional=templinst)_ZNSt8_Rb_treeINSt7__cxx1112basic_stringIcSt11char_traitsIcESaIcEEESt4pairIKS5_S5_ESt10_Select1stIS8_ESt4lessIS5_ESaIS8_EE14_M_insert_nodeEPSt18_Rb_tree_node_baseSG_PSt13_Rb_tree_nodeIS8_E@Base 1.0.3
 (optional=templinst)_ZNSt8_Rb_treeINSt7__cxx1112basic_stringIcSt11char_traitsIcESaIcEEESt4pairIKS5_S5_ESt10_Select1stIS8_ESt4lessIS5_ESaIS8_EE24_M_get_insert_unique_posERS7_@Base 1.0.3
 (optional=templinst)_ZNSt8_Rb_treeINSt7__cxx1112basic_stringIcSt11char_traitsIcESaIcEEESt4pairIKS5_S5_ESt10_Select1stIS8_ESt4lessIS5_ESaIS8_EE29_M_get_insert_hint_unique_posESt23_Rb_tree_const_iteratorIS8_ERS7_@Base 1.0.3
 (optional=templinst)_ZNSt8_Rb_treeINSt7__cxx1112basic_stringIcSt11char_traitsIcESaIcEEESt4pairIKS5_S5_ESt10_Select1stIS8_ESt4lessIS5_ESaIS8_EE4findERS7_@Base 1.0.3
 (optional=templinst)_ZNSt8_Rb_treeINSt7__cxx1112basic_stringIcSt11char_traitsIcESaIcEEESt4pairIKS5_S5_ESt10_Select1stIS8_ESt4lessIS5_ESaIS8_EED1Ev@Base 1.0.3
 (optional=templinst)_ZNSt8_Rb_treeINSt7__cxx1112basic_stringIcSt11char_traitsIcESaIcEEESt4pairIKS5_S5_ESt10_Select1stIS8_ESt4lessIS5_ESaIS8_EED2Ev@Base 1.0.3
 (optional=templinst)_ZNSt8_Rb_treeINSt7__cxx1112basic_stringIcSt11char_traitsIcESaIcEEESt4pairIKS5_St6vectorIcS4_EESt10_Select1stISA_ESt4lessIS5_ESaISA_EE24_M_get_insert_unique_posERS7_@Base 1.0.3
 (optional=templinst)_ZNSt8_Rb_treeINSt7__cxx1112basic_stringIcSt11char_traitsIcESaIcEEESt4pairIKS5_St6vectorIcS4_EESt10_Select1stISA_ESt4lessIS5_ESaISA_EE29_M_get_insert_hint_unique_posESt23_Rb_tree_const_iteratorISA_ERS7_@Base 1.0.3
 (optional=templinst)_ZNSt8_Rb_treeIPKN5boost6system14error_categoryESt4pairIKS4_St10unique_ptrINS1_6detail12std_categoryESt14default_deleteIS9_EEESt10_Select1stISD_ENS8_12cat_ptr_lessESaISD_EE16_M_insert_uniqueISD_EES5_ISt17_Rb_tree_iteratorISD_EbEOT_@Base 1.0.3
 _ZSt11nouppercaseRSt8ios_base@Base 1.0.3
 (optional=templinst)_ZSt13__copy_move_aILb1ESt15_Deque_iteratorIcRcPcES3_ET1_T0_S5_S4_@Base 1.0.3
 (optional=templinst)_ZSt13move_backwardISt15_Deque_iteratorIcRcPcES3_ET0_T_S5_S4_@Base 1.0.3
 (optional=templinst)_ZSt14__copy_move_a1ILb1EPccEN9__gnu_cxx11__enable_ifIXsrSt23__is_random_access_iterIT0_NSt15iterator_traitsIS4_E17iterator_categoryEE7__valueESt15_Deque_iteratorIT1_RSA_PSA_EE6__typeES4_S4_SD_@Base 1.0.3
 (optional=templinst)_ZSt23__copy_move_backward_a1ILb1EPccEN9__gnu_cxx11__enable_ifIXsrSt23__is_random_access_iterIT0_NSt15iterator_traitsIS4_E17iterator_categoryEE7__valueESt15_Deque_iteratorIT1_RSA_PSA_EE6__typeES4_S4_SD_@Base 1.0.3
 _ZSt3hexRSt8ios_base@Base 1.0.3
 (optional=templinst)_ZSt4copyIPKcSt15_Deque_iteratorIcRcPcEET0_T_S7_S6_@Base 1.0.3
 (optional=templinst)_ZSt7advanceIPKclEvRT_T0_@Base 1.0.3
 _ZSt9uppercaseRSt8ios_base@Base 1.0.3
 (optional=templinst)_ZSteqIcEN9__gnu_cxx11__enable_ifIXsrSt9__is_charIT_E7__valueEbE6__typeERKNSt7__cxx1112basic_stringIS3_St11char_traitsIS3_ESaIS3_EEESE_@Base 1.0.3
 (optional=templinst)_ZSteqIcSt11char_traitsIcESaIcEEbRKNSt7__cxx1112basic_stringIT_T0_T1_EEPKS5_@Base 1.0.3
 (optional=templinst)_ZStltIcSt11char_traitsIcESaIcEEbRKNSt7__cxx1112basic_stringIT_T0_T1_EESA_@Base 1.0.3
 _ZStmiRKSt15_Deque_iteratorIcRcPcES4_@Base 1.0.3
 _ZStmiRKSt15_Deque_iteratorIcRcPcEl@Base 1.0.3
 (optional=templinst)_ZStneIcSt11char_traitsIcEEbRKSt19istreambuf_iteratorIT_T0_ES7_@Base 1.0.3
 (optional=templinst)_ZStplIcSt11char_traitsIcESaIcEENSt7__cxx1112basic_stringIT_T0_T1_EEOS8_PKS5_@Base 1.0.3
 (optional=templinst)_ZStplIcSt11char_traitsIcESaIcEENSt7__cxx1112basic_stringIT_T0_T1_EEPKS5_RKS8_@Base 1.0.3
 (optional=templinst)_ZStplIcSt11char_traitsIcESaIcEENSt7__cxx1112basic_stringIT_T0_T1_EERKS8_PKS5_@Base 1.0.3
 _ZTIN5boost6system12system_errorE@Base 1.0.3
 _ZTIN5boost6system14error_categoryE@Base 1.0.3
 _ZTIN5boost6system6detail12std_categoryE@Base 1.0.3
 _ZTIN5boost6system6detail21system_error_categoryE@Base 1.0.3
 _ZTIN5boost6system6detail22generic_error_categoryE@Base 1.0.3
 _ZTIN8XdgUtils12DesktopEntry17DesktopEntryErrorE@Base 1.0.3
 _ZTIN8XdgUtils12DesktopEntry7BadCastE@Base 1.0.3
 _ZTIN8appimage19desktop_integration10integrator10IntegratorE@Base 1.0.3
 _ZTIN8appimage19desktop_integration10integrator21DesktopEntryEditErrorE@Base 1.0.3
 _ZTIN8appimage19desktop_integration11ThumbnailerE@Base 1.0.3
 _ZTIN8appimage19desktop_integration18IntegrationManagerE@Base 1.0.3
 _ZTIN8appimage19desktop_integration23DesktopIntegrationErrorE@Base 1.0.3
 _ZTIN8appimage4core13AppImageErrorE@Base 1.0.3
 _ZTIN8appimage4core15FileSystemErrorE@Base 1.0.3
 _ZTIN8appimage4core20PayloadIteratorErrorE@Base 1.0.3
 _ZTIN8appimage4core4impl14PayloadIStreamE@Base 1.0.3
 _ZTIN8appimage4core4impl14StreambufType1E@Base 1.0.3
 _ZTIN8appimage4core4impl14StreambufType2E@Base 1.0.3
 _ZTIN8appimage4core4impl14TraversalType1E@Base 1.0.3
 _ZTIN8appimage4core4impl14TraversalType24PrivE@Base 1.0.3
 _ZTIN8appimage4core4impl14TraversalType2E@Base 1.0.3
 _ZTIN8appimage4core7IOErrorE@Base 1.0.3
 _ZTIN8appimage4core8AppImageE@Base 1.0.3
 _ZTIN8appimage4core9TraversalE@Base 1.0.3
 _ZTIN8appimage5utils10IconHandle4PrivE@Base 1.0.3
 _ZTIN8appimage5utils10IconHandleE@Base 1.0.3
 _ZTIN8appimage5utils14IconHandlePrivE@Base 1.0.3
 _ZTIN8appimage5utils15IconHandleErrorE@Base 1.0.3
 _ZTIN8appimage5utils19IconHandleCairoRsvgE@Base 1.0.3
 _ZTISt11_Mutex_baseILN9__gnu_cxx12_Lock_policyE2EE@Base 1.0.3
 _ZTISt15_Sp_counted_ptrIPN8appimage19desktop_integration18IntegrationManager7PrivateELN9__gnu_cxx12_Lock_policyE2EE@Base 1.0.3
 _ZTISt15_Sp_counted_ptrIPN8appimage4core15PayloadIterator7PrivateELN9__gnu_cxx12_Lock_policyE2EE@Base 1.0.3
 _ZTISt15_Sp_counted_ptrIPN8appimage4core4impl14TraversalType1ELN9__gnu_cxx12_Lock_policyE2EE@Base 1.0.3
 _ZTISt15_Sp_counted_ptrIPN8appimage4core4impl14TraversalType2ELN9__gnu_cxx12_Lock_policyE2EE@Base 1.0.3
 _ZTISt15_Sp_counted_ptrIPN8appimage4core8AppImage7PrivateELN9__gnu_cxx12_Lock_policyE2EE@Base 1.0.3
 _ZTISt15_Sp_counted_ptrIPN8appimage5utils18ResourcesExtractor4PrivELN9__gnu_cxx12_Lock_policyE2EE@Base 1.0.3
 _ZTISt16_Sp_counted_baseILN9__gnu_cxx12_Lock_policyE2EE@Base 1.0.3
 _ZTIZN8appimage5utils6Logger4PrivC4EvEUlNS0_8LogLevelERKNSt7__cxx1112basic_stringIcSt11char_traitsIcESaIcEEEE_@Base 1.0.3
 _ZTSN5boost6system12system_errorE@Base 1.0.3
 _ZTSN5boost6system14error_categoryE@Base 1.0.3
 _ZTSN5boost6system6detail12std_categoryE@Base 1.0.3
 _ZTSN5boost6system6detail21system_error_categoryE@Base 1.0.3
 _ZTSN5boost6system6detail22generic_error_categoryE@Base 1.0.3
 _ZTSN8XdgUtils12DesktopEntry17DesktopEntryErrorE@Base 1.0.3
 _ZTSN8XdgUtils12DesktopEntry7BadCastE@Base 1.0.3
 _ZTSN8appimage19desktop_integration10integrator10IntegratorE@Base 1.0.3
 _ZTSN8appimage19desktop_integration10integrator21DesktopEntryEditErrorE@Base 1.0.3
 _ZTSN8appimage19desktop_integration11ThumbnailerE@Base 1.0.3
 _ZTSN8appimage19desktop_integration18IntegrationManagerE@Base 1.0.3
 _ZTSN8appimage19desktop_integration23DesktopIntegrationErrorE@Base 1.0.3
 _ZTSN8appimage4core13AppImageErrorE@Base 1.0.3
 _ZTSN8appimage4core15FileSystemErrorE@Base 1.0.3
 _ZTSN8appimage4core20PayloadIteratorErrorE@Base 1.0.3
 _ZTSN8appimage4core4impl14PayloadIStreamE@Base 1.0.3
 _ZTSN8appimage4core4impl14StreambufType1E@Base 1.0.3
 _ZTSN8appimage4core4impl14StreambufType2E@Base 1.0.3
 _ZTSN8appimage4core4impl14TraversalType1E@Base 1.0.3
 _ZTSN8appimage4core4impl14TraversalType24PrivE@Base 1.0.3
 _ZTSN8appimage4core4impl14TraversalType2E@Base 1.0.3
 _ZTSN8appimage4core7IOErrorE@Base 1.0.3
 _ZTSN8appimage4core8AppImageE@Base 1.0.3
 _ZTSN8appimage4core9TraversalE@Base 1.0.3
 _ZTSN8appimage5utils10IconHandle4PrivE@Base 1.0.3
 _ZTSN8appimage5utils10IconHandleE@Base 1.0.3
 _ZTSN8appimage5utils14IconHandlePrivE@Base 1.0.3
 _ZTSN8appimage5utils15IconHandleErrorE@Base 1.0.3
 _ZTSN8appimage5utils19IconHandleCairoRsvgE@Base 1.0.3
 _ZTSSt11_Mutex_baseILN9__gnu_cxx12_Lock_policyE2EE@Base 1.0.3
 _ZTSSt15_Sp_counted_ptrIPN8appimage19desktop_integration18IntegrationManager7PrivateELN9__gnu_cxx12_Lock_policyE2EE@Base 1.0.3
 _ZTSSt15_Sp_counted_ptrIPN8appimage4core15PayloadIterator7PrivateELN9__gnu_cxx12_Lock_policyE2EE@Base 1.0.3
 _ZTSSt15_Sp_counted_ptrIPN8appimage4core4impl14TraversalType1ELN9__gnu_cxx12_Lock_policyE2EE@Base 1.0.3
 _ZTSSt15_Sp_counted_ptrIPN8appimage4core4impl14TraversalType2ELN9__gnu_cxx12_Lock_policyE2EE@Base 1.0.3
 _ZTSSt15_Sp_counted_ptrIPN8appimage4core8AppImage7PrivateELN9__gnu_cxx12_Lock_policyE2EE@Base 1.0.3
 _ZTSSt15_Sp_counted_ptrIPN8appimage5utils18ResourcesExtractor4PrivELN9__gnu_cxx12_Lock_policyE2EE@Base 1.0.3
 _ZTSSt16_Sp_counted_baseILN9__gnu_cxx12_Lock_policyE2EE@Base 1.0.3
 _ZTSZN8appimage5utils6Logger4PrivC4EvEUlNS0_8LogLevelERKNSt7__cxx1112basic_stringIcSt11char_traitsIcESaIcEEEE_@Base 1.0.3
 _ZTTN8appimage4core4impl14PayloadIStreamE@Base 1.0.3
 _ZTVN5boost6system12system_errorE@Base 1.0.3
 _ZTVN5boost6system14error_categoryE@Base 1.0.3
 _ZTVN5boost6system6detail12std_categoryE@Base 1.0.3
 _ZTVN5boost6system6detail21system_error_categoryE@Base 1.0.3
 _ZTVN5boost6system6detail22generic_error_categoryE@Base 1.0.3
 _ZTVN8appimage19desktop_integration10integrator10IntegratorE@Base 1.0.3
 _ZTVN8appimage19desktop_integration10integrator21DesktopEntryEditErrorE@Base 1.0.3
 _ZTVN8appimage19desktop_integration11ThumbnailerE@Base 1.0.3
 _ZTVN8appimage19desktop_integration18IntegrationManagerE@Base 1.0.3
 _ZTVN8appimage19desktop_integration23DesktopIntegrationErrorE@Base 1.0.3
 _ZTVN8appimage4core13AppImageErrorE@Base 1.0.3
 _ZTVN8appimage4core15FileSystemErrorE@Base 1.0.3
 _ZTVN8appimage4core20PayloadIteratorErrorE@Base 1.0.3
 _ZTVN8appimage4core4impl14PayloadIStreamE@Base 1.0.3
 _ZTVN8appimage4core4impl14StreambufType1E@Base 1.0.3
 _ZTVN8appimage4core4impl14StreambufType2E@Base 1.0.3
 _ZTVN8appimage4core4impl14TraversalType1E@Base 1.0.3
 _ZTVN8appimage4core4impl14TraversalType24PrivE@Base 1.0.3
 _ZTVN8appimage4core4impl14TraversalType2E@Base 1.0.3
 _ZTVN8appimage4core7IOErrorE@Base 1.0.3
 _ZTVN8appimage4core8AppImageE@Base 1.0.3
 _ZTVN8appimage5utils10IconHandle4PrivE@Base 1.0.3
 _ZTVN8appimage5utils10IconHandleE@Base 1.0.3
 _ZTVN8appimage5utils15IconHandleErrorE@Base 1.0.3
 _ZTVN8appimage5utils19IconHandleCairoRsvgE@Base 1.0.3
 _ZTVSt15_Sp_counted_ptrIPN8appimage19desktop_integration18IntegrationManager7PrivateELN9__gnu_cxx12_Lock_policyE2EE@Base 1.0.3
 _ZTVSt15_Sp_counted_ptrIPN8appimage4core15PayloadIterator7PrivateELN9__gnu_cxx12_Lock_policyE2EE@Base 1.0.3
 _ZTVSt15_Sp_counted_ptrIPN8appimage4core4impl14TraversalType1ELN9__gnu_cxx12_Lock_policyE2EE@Base 1.0.3
 _ZTVSt15_Sp_counted_ptrIPN8appimage4core4impl14TraversalType2ELN9__gnu_cxx12_Lock_policyE2EE@Base 1.0.3
 _ZTVSt15_Sp_counted_ptrIPN8appimage4core8AppImage7PrivateELN9__gnu_cxx12_Lock_policyE2EE@Base 1.0.3
 _ZTVSt15_Sp_counted_ptrIPN8appimage5utils18ResourcesExtractor4PrivELN9__gnu_cxx12_Lock_policyE2EE@Base 1.0.3
 _ZZN5boost6system15system_categoryEvE24system_category_instance@Base 1.0.3
 _ZZN5boost6system16generic_categoryEvE25generic_category_instance@Base 1.0.3
 _ZZN5boost6system6detail15to_std_categoryERKNS0_14error_categoryEE15system_instance@Base 1.0.3
 _ZZN5boost6system6detail15to_std_categoryERKNS0_14error_categoryEE16generic_instance@Base 1.0.3
 _ZZN5boost6system6detail15to_std_categoryERKNS0_14error_categoryEE4map_@Base 1.0.3
 _ZZN5boost6system6detail15to_std_categoryERKNS0_14error_categoryEE7map_mx_@Base 1.0.3
 _ZZN5boost6system6detail16is_generic_valueEiE3gen@Base 1.0.3
 _ZZN8appimage19desktop_integration10integrator10Integrator4Priv11deployIconsEvE11dirIconPathB5cxx11@Base 1.0.3
 (optional=templinst)_ZZNSt8__detail18__to_chars_10_implIjEEvPcjT_E8__digits@Base 1.0.3
 appimage_create_thumbnail@Base 0.1.6
 appimage_extract_file_following_symlinks@Base 0.1.6
 appimage_get_elf_size@Base 0.1.6
 appimage_get_md5@Base 0.1.6
 appimage_get_payload_offset@Base 1.0.3
 appimage_get_type@Base 0.1.6
 appimage_is_registered_in_system@Base 0.1.6
 appimage_is_terminal_app@Base 0.1.6
 appimage_list_files@Base 0.1.6
 appimage_read_file_into_buffer_following_symlinks@Base 0.1.6
 appimage_register_in_system@Base 0.1.6
 appimage_registered_desktop_file_path@Base 0.1.6
 appimage_shall_not_be_integrated@Base 0.1.6
 appimage_string_list_free@Base 0.1.6
 appimage_type1_is_terminal_app@Base 0.1.6
 appimage_type1_register_in_system@Base 0.1.6
 appimage_type1_shall_not_be_integrated@Base 0.1.6
 appimage_type2_is_terminal_app@Base 0.1.6
 appimage_type2_register_in_system@Base 0.1.6
 appimage_type2_shall_not_be_integrated@Base 0.1.6
 appimage_unregister_in_system@Base 0.1.6
 user_home@Base 0.1.6
 (c++)"virtual thunk to appimage::core::impl::PayloadIStream::~PayloadIStream()@Base" 1.0.3
 xdg_cache_home@Base 0.1.6
 xdg_config_home@Base 0.1.6
 xdg_data_home@Base 0.1.6
